target datalayout = "e-m:e-p270:32:32-p271:32:32-p272:64:64-i64:64-i128:128-f80:128-n8:16:32:64-S128"
target triple = "x86_64-unknown-linux-gnu"

%"class.zmq::encoder_base_t" = type { %"struct.zmq::i_encoder", ptr, i64, { i64, i64 }, i8, i64, ptr, ptr }
%"struct.zmq::i_encoder" = type { ptr }

; Function Attrs: mustprogress nounwind uwtable
define linkonce_odr void @_ZN3zmq14encoder_base_tINS_12v1_encoder_tEE9next_stepEPvmMS1_FvvEb(ptr noundef nonnull align 8 dereferenceable(72) %this, ptr noundef %write_pos_, i64 noundef %to_write_, i64 %next_.coerce0, i64 %next_.coerce1, i1 noundef zeroext %new_msg_flag_) #1 comdat align 2 {
entry:
  %next_ = alloca { i64, i64 }, align 8
  %this.addr = alloca ptr, align 8
  %write_pos_.addr = alloca ptr, align 8
  %to_write_.addr = alloca i64, align 8
  %next_.addr = alloca { i64, i64 }, align 8
  %new_msg_flag_.addr = alloca i8, align 1
  %0 = getelementptr inbounds { i64, i64 }, ptr %next_, i32 0, i32 0
  store i64 %next_.coerce0, ptr %0, align 8
  %1 = getelementptr inbounds { i64, i64 }, ptr %next_, i32 0, i32 1
  store i64 %next_.coerce1, ptr %1, align 8
  %next_1 = load { i64, i64 }, ptr %next_, align 8
  store ptr %this, ptr %this.addr, align 8
  store ptr %write_pos_, ptr %write_pos_.addr, align 8
  store i64 %to_write_, ptr %to_write_.addr, align 8
  store { i64, i64 } %next_1, ptr %next_.addr, align 8
  %frombool = zext i1 %new_msg_flag_ to i8
  store i8 %frombool, ptr %new_msg_flag_.addr, align 1
  %this2 = load ptr, ptr %this.addr, align 8
  %2 = load ptr, ptr %write_pos_.addr, align 8
  %_write_pos = getelementptr inbounds %"class.zmq::encoder_base_t", ptr %this2, i32 0, i32 1
  store ptr %2, ptr %_write_pos, align 8
  %3 = load i64, ptr %to_write_.addr, align 8
  %_to_write = getelementptr inbounds %"class.zmq::encoder_base_t", ptr %this2, i32 0, i32 2
  store i64 %3, ptr %_to_write, align 8
  %4 = load { i64, i64 }, ptr %next_.addr, align 8
  %_next = getelementptr inbounds %"class.zmq::encoder_base_t", ptr %this2, i32 0, i32 3
  store { i64, i64 } %4, ptr %_next, align 8
  %5 = load i8, ptr %new_msg_flag_.addr, align 1
  %tobool = trunc i8 %5 to i1
  %_new_msg_flag = getelementptr inbounds %"class.zmq::encoder_base_t", ptr %this2, i32 0, i32 4
  %frombool3 = zext i1 %tobool to i8
  store i8 %frombool3, ptr %_new_msg_flag, align 8
  ret void
}

; Function Attrs: mustprogress nounwind uwtable
define linkonce_odr noundef ptr @_ZN3zmq14encoder_base_tINS_12v1_encoder_tEE11in_progressEv(ptr noundef nonnull align 8 dereferenceable(72) %this) #1 comdat align 2 {
entry:
  %this.addr = alloca ptr, align 8
  store ptr %this, ptr %this.addr, align 8
  %this1 = load ptr, ptr %this.addr, align 8
  %_in_progress = getelementptr inbounds %"class.zmq::encoder_base_t", ptr %this1, i32 0, i32 7
  %0 = load ptr, ptr %_in_progress, align 8
  ret ptr %0
}

; Function Attrs: mustprogress uwtable
define void @_ZN3zmq12v1_encoder_t10size_readyEv(ptr noundef nonnull align 8 dereferenceable(88) %this) #0 align 2 {
entry:
  %this.addr = alloca ptr, align 8
  %coerce = alloca { i64, i64 }, align 8
  store ptr %this, ptr %this.addr, align 8
  %this1 = load ptr, ptr %this.addr, align 8
  %call = call noundef ptr @_ZN3zmq14encoder_base_tINS_12v1_encoder_tEE11in_progressEv(ptr noundef nonnull align 8 dereferenceable(72) %this1)
  %call2 = call noundef ptr @_ZN3zmq5msg_t4dataEv(ptr noundef nonnull align 8 dereferenceable(64) %call)
  %call3 = call noundef ptr @_ZN3zmq14encoder_base_tINS_12v1_encoder_tEE11in_progressEv(ptr noundef nonnull align 8 dereferenceable(72) %this1)
  %call4 = call noundef i64 @_ZNK3zmq5msg_t4sizeEv(ptr noundef nonnull align 8 dereferenceable(64) %call3)
  store { i64, i64 } { i64 ptrtoint (ptr @_ZN3zmq12v1_encoder_t13message_readyEv to i64), i64 0 }, ptr %coerce, align 8
  %0 = getelementptr inbounds { i64, i64 }, ptr %coerce, i32 0, i32 0
  %1 = load i64, ptr %0, align 8
  %2 = getelementptr inbounds { i64, i64 }, ptr %coerce, i32 0, i32 1
  %3 = load i64, ptr %2, align 8
  call void @_ZN3zmq14encoder_base_tINS_12v1_encoder_tEE9next_stepEPvmMS1_FvvEb(ptr noundef nonnull align 8 dereferenceable(72) %this1, ptr noundef %call2, i64 noundef %call4, i64 %1, i64 %3, i1 noundef zeroext true)
  ret void
}